target datalayout = "e-m:e-p270:32:32-p271:32:32-p272:64:64-i64:64-i128:128-f80:128-n8:16:32:64-S128"
target triple = "x86_64-pc-linux-gnu"

%struct.bio_st = type { ptr, ptr, ptr, ptr, ptr, i32, i32, i32, i32, i32, ptr, ptr, ptr, %struct.CRYPTO_REF_COUNT, i64, i64, %struct.crypto_ex_data_st }
%struct.CRYPTO_REF_COUNT = type { i32 }
%struct.crypto_ex_data_st = type { ptr, ptr }

@.str = private unnamed_addr constant [32 x i8] c"../openssl/crypto/bio/bss_bio.c\00", align 1
@__func__.BIO_nread0 = private unnamed_addr constant [11 x i8] c"BIO_nread0\00", align 1

; Function Attrs: nounwind uwtable
define i32 @BIO_nread0(ptr noundef %0, ptr noundef %1) #0 {
  %3 = alloca i32, align 4
  %4 = alloca ptr, align 8
  %5 = alloca ptr, align 8
  %6 = alloca i64, align 8
  %7 = alloca i32, align 4
  store ptr %0, ptr %4, align 8, !tbaa !10
  store ptr %1, ptr %5, align 8, !tbaa !14
  call void @llvm.lifetime.start.p0(i64 8, ptr %6) #5
  %8 = load ptr, ptr %4, align 8, !tbaa !10
  %9 = getelementptr inbounds nuw %struct.bio_st, ptr %8, i32 0, i32 5
  %10 = load i32, ptr %9, align 8, !tbaa !16
  %11 = icmp ne i32 %10, 0
  br i1 %11, label %13, label %12

12:                                               ; preds = %2
  call void @ERR_new()
  call void @ERR_set_debug(ptr noundef @.str, i32 noundef 747, ptr noundef @__func__.BIO_nread0)
  call void (i32, i32, ptr, ...) @ERR_set_error(i32 noundef 32, i32 noundef 120, ptr noundef null)
  store i32 -2, ptr %3, align 4
  store i32 1, ptr %7, align 4
  br label %23

13:                                               ; preds = %2
  %14 = load ptr, ptr %4, align 8, !tbaa !10
  %15 = load ptr, ptr %5, align 8, !tbaa !14
  %16 = call i64 @BIO_ctrl(ptr noundef %14, i32 noundef 143, i64 noundef 0, ptr noundef %15)
  store i64 %16, ptr %6, align 8, !tbaa !8
  %17 = load i64, ptr %6, align 8, !tbaa !8
  %18 = icmp sgt i64 %17, 2147483647
  br i1 %18, label %19, label %20

19:                                               ; preds = %13
  store i32 2147483647, ptr %3, align 4
  store i32 1, ptr %7, align 4
  br label %23

20:                                               ; preds = %13
  %21 = load i64, ptr %6, align 8, !tbaa !8
  %22 = trunc i64 %21 to i32
  store i32 %22, ptr %3, align 4
  store i32 1, ptr %7, align 4
  br label %23

23:                                               ; preds = %20, %19, %12
  call void @llvm.lifetime.end.p0(i64 8, ptr %6) #5
  %24 = load i32, ptr %3, align 4
  ret i32 %24
}